	.file	"kernel.cpp"
	.text
.Ltext0:
	.data
	.align 4
	.type	_ZL12KERN_VERSION, @object
	.size	_ZL12KERN_VERSION, 4
_ZL12KERN_VERSION:
	.long	196608
	.section	.rodata
.LC0:
	.string	" KB memory"
.LC1:
	.string	"; memory map loaded"
.LC2:
	.string	"\n\nisrInstall()\n"
.LC3:
	.string	"initKeyboard()\n"
.LC4:
	.string	"initTimer()\n"
.LC5:
	.string	"pmmInit()\n"
.LC6:
	.string	"Starting shell\n"
	.text
	.globl	kernelMain
	.type	kernelMain, @function
kernelMain:
.LFB0:
	.file 1 "kernel/kernel.cpp"
	.loc 1 26 0
	.cfi_startproc
	pushl	%ebp
	.cfi_def_cfa_offset 8
	.cfi_offset 5, -8
	movl	%esp, %ebp
	.cfi_def_cfa_register 5
	subl	$104, %esp
	.loc 1 28 0
	movl	$0, -12(%ebp)
	.loc 1 29 0
	movl	$0, -16(%ebp)
	movl	$0, -20(%ebp)
	.loc 1 31 0
	movl	$0, -24(%ebp)
	.loc 1 33 0
	subl	$12, %esp
	pushl	12(%ebp)
	call	_Z17displayStartupMsgj
	addl	$16, %esp
	.loc 1 36 0
	movl	8(%ebp), %eax
	movl	(%eax), %eax
	andl	$1, %eax
	testl	%eax, %eax
	je	.L2
	.loc 1 38 0
	movl	8(%ebp), %eax
	movl	8(%eax), %edx
	movl	8(%ebp), %eax
	movl	4(%eax), %eax
	addl	%edx, %eax
	addl	$1024, %eax
	movl	%eax, -12(%ebp)
	.loc 1 39 0
	movl	-12(%ebp), %eax
	subl	$8, %esp
	leal	-38(%ebp), %edx
	pushl	%edx
	pushl	%eax
	call	_Z4itoaiPc
	addl	$16, %esp
	.loc 1 40 0
	subl	$12, %esp
	leal	-38(%ebp), %eax
	pushl	%eax
	call	_Z6kprintPc
	addl	$16, %esp
	.loc 1 41 0
	subl	$12, %esp
	pushl	$.LC0
	call	_Z6kprintPc
	addl	$16, %esp
.L2:
	.loc 1 43 0
	movl	8(%ebp), %eax
	movl	(%eax), %eax
	andl	$64, %eax
	testl	%eax, %eax
	je	.L3
	.loc 1 45 0
	movl	8(%ebp), %eax
	movl	48(%eax), %eax
	movl	%eax, -16(%ebp)
	.loc 1 46 0
	movl	8(%ebp), %eax
	movl	44(%eax), %eax
	movl	%eax, -20(%ebp)
	.loc 1 47 0
	movl	8(%ebp), %eax
	movl	48(%eax), %eax
	movl	%eax, %edx
	subl	$8, %esp
	leal	-38(%ebp), %eax
	pushl	%eax
	pushl	%edx
	call	_Z4itoaiPc
	addl	$16, %esp
	.loc 1 48 0
	subl	$12, %esp
	pushl	$.LC1
	call	_Z6kprintPc
	addl	$16, %esp
.L3:
	.loc 1 51 0
	subl	$12, %esp
	pushl	$.LC2
	call	_Z6kprintPc
	addl	$16, %esp
	.loc 1 52 0
	call	_Z10isrInstallv
	.loc 1 53 0
	subl	$12, %esp
	pushl	$.LC3
	call	_Z6kprintPc
	addl	$16, %esp
	.loc 1 54 0
	call	_Z12initKeyboardv
	.loc 1 55 0
	subl	$12, %esp
	pushl	$.LC4
	call	_Z6kprintPc
	addl	$16, %esp
	.loc 1 56 0
	subl	$12, %esp
	pushl	$100
	call	_Z9initTimerj
	addl	$16, %esp
	.loc 1 59 0
	subl	$12, %esp
	pushl	$.LC5
	call	_Z6kprintPc
	addl	$16, %esp
	.loc 1 60 0
	movl	-16(%ebp), %eax
	subl	$12, %esp
	pushl	-20(%ebp)
	pushl	%eax
	pushl	12(%ebp)
	pushl	$16777216
	pushl	-12(%ebp)
	call	_Z7pmmInitjjjP10regionInfoj
	addl	$32, %esp
	.loc 1 62 0
	subl	$12, %esp
	pushl	$.LC6
	call	_Z6kprintPc
	addl	$16, %esp
	.loc 1 63 0
	call	_Z10shellStartv
	.loc 1 64 0
	call	_Z17displayStatusLinev
	.loc 1 66 0
/APP
/  66 "kernel/kernel.cpp" 1
	sti
/  0 "" 2
	.loc 1 68 0
/NO_APP
	subl	$4, %esp
	pushl	$64
	pushl	$0
	leal	-104(%ebp), %eax
	pushl	%eax
	call	_Z6memsetPcci
	addl	$16, %esp
.L9:
.LBB2:
.LBB3:
	.loc 1 71 0
	movl	tickCounter, %ecx
	movl	$1374389535, %edx
	movl	%ecx, %eax
	mull	%edx
	movl	%edx, %eax
	shrl	$5, %eax
	imull	$100, %eax, %eax
	subl	%eax, %ecx
	movl	%ecx, %eax
	testl	%eax, %eax
	jne	.L4
.LBB4:
	.loc 1 73 0
	movl	-24(%ebp), %eax
	movl	-104(%ebp,%eax,4), %eax
	testl	%eax, %eax
	je	.L5
	.loc 1 75 0
	movl	-24(%ebp), %eax
	movl	-104(%ebp,%eax,4), %eax
	subl	$12, %esp
	pushl	%eax
	call	_Z7pmmFreePv
	addl	$16, %esp
.L5:
	.loc 1 77 0
	call	_Z8pmmAllocv
	movl	%eax, -28(%ebp)
	.loc 1 78 0
	cmpl	$0, -28(%ebp)
	je	.L6
	.loc 1 80 0
	cmpl	$9, -24(%ebp)
	jg	.L7
	.loc 1 80 0 is_stmt 0 discriminator 1
	movl	-24(%ebp), %eax
	addl	$48, %eax
	movsbl	%al, %eax
	jmp	.L8
.L7:
	.loc 1 80 0 discriminator 2
	movl	-24(%ebp), %eax
	addl	$55, %eax
	movsbl	%al, %eax
.L8:
	.loc 1 80 0 discriminator 4
	subl	$4, %esp
	pushl	$4096
	pushl	%eax
	pushl	-28(%ebp)
	call	_Z6memsetPcci
	addl	$16, %esp
	.loc 1 81 0 is_stmt 1 discriminator 4
	movl	-24(%ebp), %eax
	leal	1(%eax), %edx
	movl	%edx, -24(%ebp)
	movl	-28(%ebp), %edx
	movl	%edx, -104(%ebp,%eax,4)
	.loc 1 82 0 discriminator 4
	cmpl	$15, -24(%ebp)
	jle	.L6
	.loc 1 84 0
	movl	$0, -24(%ebp)
.L6:
	.loc 1 89 0
	call	_Z17displayStatusLinev
.L4:
.LBE4:
.LBE3:
	.loc 1 92 0
	call	_Z15shellCheckInputv
	.loc 1 94 0
/APP
/  94 "kernel/kernel.cpp" 1
	hlt
/  0 "" 2
/NO_APP
.LBE2:
	.loc 1 95 0
	jmp	.L9
	.cfi_endproc
.LFE0:
	.size	kernelMain, .-kernelMain
	.section	.rodata
.LC7:
	.string	"Mem Free: "
.LC8:
	.string	" blocks Uptime: "
	.text
	.globl	_Z17displayStatusLinev
	.type	_Z17displayStatusLinev, @function
_Z17displayStatusLinev:
.LFB1:
	.loc 1 99 0
	.cfi_startproc
	pushl	%ebp
	.cfi_def_cfa_offset 8
	.cfi_offset 5, -8
	movl	%esp, %ebp
	.cfi_def_cfa_register 5
	pushl	%ebx
	subl	$132, %esp
	.cfi_offset 3, -12
	.loc 1 104 0
	call	_Z15getCursorOffsetv
	movl	%eax, -12(%ebp)
	.loc 1 106 0
	subl	$4, %esp
	pushl	$81
	pushl	$0
	leal	-122(%ebp), %eax
	pushl	%eax
	call	_Z6memsetPcci
	addl	$16, %esp
	.loc 1 107 0
	subl	$4, %esp
	pushl	$10
	pushl	$.LC7
	leal	-122(%ebp), %eax
	pushl	%eax
	call	_Z6memcpyPcS_j
	addl	$16, %esp
	.loc 1 108 0
	call	_Z16pmmMemFreeBlocksv
	movl	%eax, %edx
	subl	$8, %esp
	leal	-41(%ebp), %eax
	pushl	%eax
	pushl	%edx
	call	_Z4itoaiPc
	addl	$16, %esp
	.loc 1 109 0
	subl	$12, %esp
	leal	-41(%ebp), %eax
	pushl	%eax
	call	_Z6strlenPc
	addl	$16, %esp
	movl	%eax, %ebx
	subl	$12, %esp
	leal	-122(%ebp), %eax
	pushl	%eax
	call	_Z6strlenPc
	addl	$16, %esp
	movl	%eax, %edx
	leal	-122(%ebp), %eax
	addl	%eax, %edx
	subl	$4, %esp
	pushl	%ebx
	leal	-41(%ebp), %eax
	pushl	%eax
	pushl	%edx
	call	_Z6memcpyPcS_j
	addl	$16, %esp
	.loc 1 110 0
	subl	$12, %esp
	leal	-122(%ebp), %eax
	pushl	%eax
	call	_Z6strlenPc
	addl	$16, %esp
	movl	%eax, %edx
	leal	-122(%ebp), %eax
	addl	%edx, %eax
	subl	$4, %esp
	pushl	$16
	pushl	$.LC8
	pushl	%eax
	call	_Z6memcpyPcS_j
	addl	$16, %esp
	.loc 1 111 0
	movl	tickCounter, %eax
	movl	$1374389535, %edx
	mull	%edx
	movl	%edx, %eax
	shrl	$5, %eax
	movl	%eax, %edx
	subl	$8, %esp
	leal	-41(%ebp), %eax
	pushl	%eax
	pushl	%edx
	call	_Z4itoaiPc
	addl	$16, %esp
	.loc 1 112 0
	subl	$12, %esp
	leal	-41(%ebp), %eax
	pushl	%eax
	call	_Z6strlenPc
	addl	$16, %esp
	movl	%eax, %ebx
	subl	$12, %esp
	leal	-122(%ebp), %eax
	pushl	%eax
	call	_Z6strlenPc
	addl	$16, %esp
	movl	%eax, %edx
	leal	-122(%ebp), %eax
	addl	%eax, %edx
	subl	$4, %esp
	pushl	%ebx
	leal	-41(%ebp), %eax
	pushl	%eax
	pushl	%edx
	call	_Z6memcpyPcS_j
	addl	$16, %esp
	.loc 1 113 0
	subl	$12, %esp
	leal	-122(%ebp), %eax
	pushl	%eax
	call	_Z6strlenPc
	addl	$16, %esp
	movl	%eax, -16(%ebp)
	.loc 1 114 0
	leal	-122(%ebp), %edx
	movl	-16(%ebp), %eax
	addl	%edx, %eax
	movb	$115, (%eax)
	.loc 1 115 0
	movl	-16(%ebp), %eax
	addl	$1, %eax
	movb	$0, -122(%ebp,%eax)
	.loc 1 116 0
	subl	$12, %esp
	leal	-122(%ebp), %eax
	pushl	%eax
	call	_Z6strlenPc
	addl	$16, %esp
	movl	$79, %edx
	subl	%eax, %edx
	movl	%edx, %eax
	movl	%eax, %ebx
	subl	$12, %esp
	leal	-122(%ebp), %eax
	pushl	%eax
	call	_Z6strlenPc
	addl	$16, %esp
	movl	%eax, %edx
	leal	-122(%ebp), %eax
	addl	%edx, %eax
	subl	$4, %esp
	pushl	%ebx
	pushl	$32
	pushl	%eax
	call	_Z6memsetPcci
	addl	$16, %esp
	.loc 1 117 0
	pushl	$94
	pushl	$0
	pushl	$0
	leal	-122(%ebp), %eax
	pushl	%eax
	call	_Z8kprintAtPciic
	addl	$16, %esp
	.loc 1 119 0
	subl	$12, %esp
	pushl	-12(%ebp)
	call	_Z15setCursorOffseti
	addl	$16, %esp
	.loc 1 120 0
	nop
	movl	-4(%ebp), %ebx
	leave
	.cfi_restore 5
	.cfi_restore 3
	.cfi_def_cfa 4, 4
	ret
	.cfi_endproc
.LFE1:
	.size	_Z17displayStatusLinev, .-_Z17displayStatusLinev
	.section	.rodata
.LC9:
	.string	"."
.LC10:
	.string	" ["
.LC11:
	.string	" bytes @ 0x1000000]\n"
	.align 4
.LC12:
	.string	"Copyright (C) 2017-2019 H2. All Rights Reserved!\n\n"
	.text
	.globl	_Z17displayStartupMsgj
	.type	_Z17displayStartupMsgj, @function
_Z17displayStartupMsgj:
.LFB2:
	.loc 1 123 0
	.cfi_startproc
	pushl	%ebp
	.cfi_def_cfa_offset 8
	.cfi_offset 5, -8
	movl	%esp, %ebp
	.cfi_def_cfa_register 5
	subl	$40, %esp
	.loc 1 124 0
	movl	$1397699144, -31(%ebp)
	movl	$1919240992, -27(%ebp)
	movl	$543974766, -23(%ebp)
	movl	$1918989395, -19(%ebp)
	movl	$560227700, -15(%ebp)
	movw	$30240, -11(%ebp)
	movb	$0, -9(%ebp)
	.loc 1 125 0
	subl	$12, %esp
	pushl	$7
	call	_Z11clearScreenc
	addl	$16, %esp
	.loc 1 126 0
	subl	$12, %esp
	pushl	$7
	call	_Z15defaultTextAttrc
	addl	$16, %esp
	.loc 1 127 0
	pushl	$15
	pushl	$2
	pushl	$0
	leal	-31(%ebp), %eax
	pushl	%eax
	call	_Z8kprintAtPciic
	addl	$16, %esp
	.loc 1 128 0
	movl	_ZL12KERN_VERSION, %eax
	shrl	$24, %eax
	movl	%eax, %edx
	subl	$8, %esp
	leal	-31(%ebp), %eax
	pushl	%eax
	pushl	%edx
	call	_Z4itoaiPc
	addl	$16, %esp
	.loc 1 129 0
	pushl	$15
	pushl	$-1
	pushl	$-1
	leal	-31(%ebp), %eax
	pushl	%eax
	call	_Z8kprintAtPciic
	addl	$16, %esp
	.loc 1 130 0
	subl	$12, %esp
	pushl	$.LC9
	call	_Z6kprintPc
	addl	$16, %esp
	.loc 1 131 0
	movl	_ZL12KERN_VERSION, %eax
	shrl	$16, %eax
	movzbl	%al, %eax
	subl	$8, %esp
	leal	-31(%ebp), %edx
	pushl	%edx
	pushl	%eax
	call	_Z4itoaiPc
	addl	$16, %esp
	.loc 1 132 0
	pushl	$15
	pushl	$-1
	pushl	$-1
	leal	-31(%ebp), %eax
	pushl	%eax
	call	_Z8kprintAtPciic
	addl	$16, %esp
	.loc 1 133 0
	subl	$12, %esp
	pushl	$.LC9
	call	_Z6kprintPc
	addl	$16, %esp
	.loc 1 134 0
	movl	_ZL12KERN_VERSION, %eax
	shrl	$8, %eax
	movzbl	%al, %eax
	subl	$8, %esp
	leal	-31(%ebp), %edx
	pushl	%edx
	pushl	%eax
	call	_Z4itoaiPc
	addl	$16, %esp
	.loc 1 135 0
	pushl	$15
	pushl	$-1
	pushl	$-1
	leal	-31(%ebp), %eax
	pushl	%eax
	call	_Z8kprintAtPciic
	addl	$16, %esp
	.loc 1 136 0
	subl	$12, %esp
	pushl	$.LC9
	call	_Z6kprintPc
	addl	$16, %esp
	.loc 1 137 0
	movl	_ZL12KERN_VERSION, %eax
	movzbl	%al, %eax
	subl	$8, %esp
	leal	-31(%ebp), %edx
	pushl	%edx
	pushl	%eax
	call	_Z4itoaiPc
	addl	$16, %esp
	.loc 1 138 0
	pushl	$15
	pushl	$-1
	pushl	$-1
	leal	-31(%ebp), %eax
	pushl	%eax
	call	_Z8kprintAtPciic
	addl	$16, %esp
	.loc 1 139 0
	subl	$12, %esp
	pushl	$.LC10
	call	_Z6kprintPc
	addl	$16, %esp
	.loc 1 140 0
	movl	8(%ebp), %eax
	subl	$8, %esp
	leal	-31(%ebp), %edx
	pushl	%edx
	pushl	%eax
	call	_Z4itoaiPc
	addl	$16, %esp
	.loc 1 141 0
	subl	$12, %esp
	leal	-31(%ebp), %eax
	pushl	%eax
	call	_Z6kprintPc
	addl	$16, %esp
	.loc 1 142 0
	subl	$12, %esp
	pushl	$.LC11
	call	_Z6kprintPc
	addl	$16, %esp
	.loc 1 143 0
	pushl	$15
	pushl	$-1
	pushl	$-1
	pushl	$.LC12
	call	_Z8kprintAtPciic
	addl	$16, %esp
	.loc 1 144 0
	nop
	leave
	.cfi_restore 5
	.cfi_def_cfa 4, 4
	ret
	.cfi_endproc
.LFE2:
	.size	_Z17displayStartupMsgj, .-_Z17displayStartupMsgj
.Letext0:
	.file 2 "includes/hw/types.h"
	.file 3 "includes/hw/idt.h"
	.file 4 "includes/bootinfo.h"
	.file 5 "includes/kversion.h"