	.file	"idt.cpp"
	.text
.Ltext0:
	.globl	idt
	.section	.bss
	.align 32
	.type	idt, @object
	.size	idt, 2048
idt:
	.zero	2048
	.globl	idt_reg
	.align 4
	.type	idt_reg, @object
	.size	idt_reg, 6
idt_reg:
	.zero	6
	.text
	.globl	_Z10setIDTGateij
	.type	_Z10setIDTGateij, @function
_Z10setIDTGateij:
.LFB0:
	.file 1 "hw/idt.cpp"
	.loc 1 8 0
	.cfi_startproc
	pushl	%ebp
	.cfi_def_cfa_offset 8
	.cfi_offset 5, -8
	movl	%esp, %ebp
	.cfi_def_cfa_register 5
	.loc 1 9 0
	movl	12(%ebp), %eax
	movl	%eax, %edx
	movl	8(%ebp), %eax
	movw	%dx, idt(,%eax,8)
	.loc 1 10 0
	movl	8(%ebp), %eax
	movw	$8, idt+2(,%eax,8)
	.loc 1 11 0
	movl	8(%ebp), %eax
	movb	$0, idt+4(,%eax,8)
	.loc 1 12 0
	movl	8(%ebp), %eax
	movb	$-114, idt+5(,%eax,8)
	.loc 1 13 0
	movl	12(%ebp), %eax
	shrl	$16, %eax
	movl	%eax, %edx
	movl	8(%ebp), %eax
	movw	%dx, idt+6(,%eax,8)
	.loc 1 14 0
	nop
	popl	%ebp
	.cfi_restore 5
	.cfi_def_cfa 4, 4
	ret
	.cfi_endproc
.LFE0:
	.size	_Z10setIDTGateij, .-_Z10setIDTGateij
	.globl	_Z6setIDTv
	.type	_Z6setIDTv, @function
_Z6setIDTv:
.LFB1:
	.loc 1 17 0
	.cfi_startproc
	pushl	%ebp
	.cfi_def_cfa_offset 8
	.cfi_offset 5, -8
	movl	%esp, %ebp
	.cfi_def_cfa_register 5
	.loc 1 18 0
	movl	$idt, %eax
	movl	%eax, idt_reg+2
	.loc 1 19 0
	movw	$2047, idt_reg
	.loc 1 21 0
	movl	$idt_reg, %eax
/APP
/  21 "hw/idt.cpp" 1
	lidtl (%eax)
/  0 "" 2
	.loc 1 22 0
/NO_APP
	nop
	popl	%ebp
	.cfi_restore 5
	.cfi_def_cfa 4, 4
	ret
	.cfi_endproc
.LFE1:
	.size	_Z6setIDTv, .-_Z6setIDTv
.Letext0:
	.file 2 "includes/hw/types.h"
	.file 3 "includes/hw/idt.h"