	.file	"port_io.cpp"
	.text
.Ltext0:
	.globl	_Z10portByteInt
	.type	_Z10portByteInt, @function
_Z10portByteInt:
.LFB0:
	.file 1 "hw/port_io.cpp"
	.loc 1 5 0
	.cfi_startproc
	pushl	%ebp
	.cfi_def_cfa_offset 8
	.cfi_offset 5, -8
	movl	%esp, %ebp
	.cfi_def_cfa_register 5
	subl	$20, %esp
	movl	8(%ebp), %eax
	movw	%ax, -20(%ebp)
	.loc 1 7 0
	movzwl	-20(%ebp), %eax
	movl	%eax, %edx
/APP
/  7 "hw/port_io.cpp" 1
	in %dx, %al
/  0 "" 2
/NO_APP
	movb	%al, -1(%ebp)
	.loc 1 8 0
	movzbl	-1(%ebp), %eax
	.loc 1 9 0
	leave
	.cfi_restore 5
	.cfi_def_cfa 4, 4
	ret
	.cfi_endproc
.LFE0:
	.size	_Z10portByteInt, .-_Z10portByteInt
	.globl	_Z11portByteOutth
	.type	_Z11portByteOutth, @function
_Z11portByteOutth:
.LFB1:
	.loc 1 12 0
	.cfi_startproc
	pushl	%ebp
	.cfi_def_cfa_offset 8
	.cfi_offset 5, -8
	movl	%esp, %ebp
	.cfi_def_cfa_register 5
	subl	$8, %esp
	movl	8(%ebp), %edx
	movl	12(%ebp), %eax
	movw	%dx, -4(%ebp)
	movb	%al, -8(%ebp)
	.loc 1 13 0
	movzbl	-8(%ebp), %eax
	movzwl	-4(%ebp), %edx
/APP
/  13 "hw/port_io.cpp" 1
	out %al, %dx
/  0 "" 2
	.loc 1 14 0
/NO_APP
	nop
	leave
	.cfi_restore 5
	.cfi_def_cfa 4, 4
	ret
	.cfi_endproc
.LFE1:
	.size	_Z11portByteOutth, .-_Z11portByteOutth
	.globl	_Z10portWordInt
	.type	_Z10portWordInt, @function
_Z10portWordInt:
.LFB2:
	.loc 1 17 0
	.cfi_startproc
	pushl	%ebp
	.cfi_def_cfa_offset 8
	.cfi_offset 5, -8
	movl	%esp, %ebp
	.cfi_def_cfa_register 5
	subl	$20, %esp
	movl	8(%ebp), %eax
	movw	%ax, -20(%ebp)
	.loc 1 19 0
	movzwl	-20(%ebp), %eax
	movl	%eax, %edx
/APP
/  19 "hw/port_io.cpp" 1
	in %dx, %ax
/  0 "" 2
/NO_APP
	movw	%ax, -2(%ebp)
	.loc 1 20 0
	movzwl	-2(%ebp), %eax
	.loc 1 21 0
	leave
	.cfi_restore 5
	.cfi_def_cfa 4, 4
	ret
	.cfi_endproc
.LFE2:
	.size	_Z10portWordInt, .-_Z10portWordInt
	.globl	_Z11portWordOuttt
	.type	_Z11portWordOuttt, @function
_Z11portWordOuttt:
.LFB3:
	.loc 1 24 0
	.cfi_startproc
	pushl	%ebp
	.cfi_def_cfa_offset 8
	.cfi_offset 5, -8
	movl	%esp, %ebp
	.cfi_def_cfa_register 5
	subl	$8, %esp
	movl	8(%ebp), %edx
	movl	12(%ebp), %eax
	movw	%dx, -4(%ebp)
	movw	%ax, -8(%ebp)
	.loc 1 25 0
	movzwl	-8(%ebp), %eax
	movzwl	-4(%ebp), %edx
/APP
/  25 "hw/port_io.cpp" 1
	out %ax, %dx
/  0 "" 2
	.loc 1 26 0
/NO_APP
	nop
	leave
	.cfi_restore 5
	.cfi_def_cfa 4, 4
	ret
	.cfi_endproc
.LFE3:
	.size	_Z11portWordOuttt, .-_Z11portWordOuttt
.Letext0:
	.file 2 "includes/hw/types.h"