	.file	"timer.cpp"
	.text
.Ltext0:
	.globl	tickCounter
	.section	.bss
	.align 4
	.type	tickCounter, @object
	.size	tickCounter, 4
tickCounter:
	.zero	4
	.text
	.type	_ZL13timerCallback11registers_t, @function
_ZL13timerCallback11registers_t:
.LFB0:
	.file 1 "hw/timer.cpp"
	.loc 1 14 0
	.cfi_startproc
	pushl	%ebp
	.cfi_def_cfa_offset 8
	.cfi_offset 5, -8
	movl	%esp, %ebp
	.cfi_def_cfa_register 5
	.loc 1 15 0
	movl	tickCounter, %eax
	addl	$1, %eax
	movl	%eax, tickCounter
	.loc 1 16 0
	nop
	popl	%ebp
	.cfi_restore 5
	.cfi_def_cfa 4, 4
	ret
	.cfi_endproc
.LFE0:
	.size	_ZL13timerCallback11registers_t, .-_ZL13timerCallback11registers_t
	.globl	_Z9initTimerj
	.type	_Z9initTimerj, @function
_Z9initTimerj:
.LFB1:
	.loc 1 19 0
	.cfi_startproc
	pushl	%ebp
	.cfi_def_cfa_offset 8
	.cfi_offset 5, -8
	movl	%esp, %ebp
	.cfi_def_cfa_register 5
	subl	$24, %esp
	.loc 1 20 0
	subl	$8, %esp
	pushl	$_ZL13timerCallback11registers_t
	pushl	$32
	call	_Z24registerInterruptHandlerhPFv11registers_tE
	addl	$16, %esp
	.loc 1 23 0
	movl	$1193180, %eax
	movl	$0, %edx
	divl	8(%ebp)
	movl	%eax, -12(%ebp)
	.loc 1 24 0
	movl	-12(%ebp), %eax
	movb	%al, -13(%ebp)
	.loc 1 25 0
	movl	-12(%ebp), %eax
	shrl	$8, %eax
	movb	%al, -14(%ebp)
	.loc 1 26 0
	subl	$8, %esp
	pushl	$54
	pushl	$67
	call	_Z11portByteOutth
	addl	$16, %esp
	.loc 1 27 0
	movzbl	-13(%ebp), %eax
	subl	$8, %esp
	pushl	%eax
	pushl	$64
	call	_Z11portByteOutth
	addl	$16, %esp
	.loc 1 28 0
	movzbl	-14(%ebp), %eax
	subl	$8, %esp
	pushl	%eax
	pushl	$64
	call	_Z11portByteOutth
	addl	$16, %esp
	.loc 1 29 0
	nop
	leave
	.cfi_restore 5
	.cfi_def_cfa 4, 4
	ret
	.cfi_endproc
.LFE1:
	.size	_Z9initTimerj, .-_Z9initTimerj
.Letext0:
	.file 2 "includes/hw/types.h"
	.file 3 "includes/hw/isr.h"