	.file	"keyboard.cpp"
	.text
.Ltext0:
	.local	_ZL9keyBuffer
	.comm	_ZL9keyBuffer,1024,32
	.local	_ZL12keyBufferPos
	.comm	_ZL12keyBufferPos,4,4
	.type	_ZL16keyboardCallback11registers_t, @function
_ZL16keyboardCallback11registers_t:
.LFB0:
	.file 1 "drivers/keyboard.cpp"
	.loc 1 12 0
	.cfi_startproc
	pushl	%ebp
	.cfi_def_cfa_offset 8
	.cfi_offset 5, -8
	movl	%esp, %ebp
	.cfi_def_cfa_register 5
	subl	$24, %esp
	.loc 1 13 0
	subl	$12, %esp
	pushl	$96
	call	_Z10portByteInt
	addl	$16, %esp
	movb	%al, -9(%ebp)
	.loc 1 14 0
	movzbl	-9(%ebp), %eax
	andl	$127, %eax
	movb	%al, -10(%ebp)
	.loc 1 17 0
	cmpb	$88, -10(%ebp)
	ja	.L4
	.loc 1 22 0
	movl	_ZL12keyBufferPos, %eax
	movzbl	-9(%ebp), %edx
	movb	%dl, _ZL9keyBuffer(%eax)
	.loc 1 23 0
	movl	_ZL12keyBufferPos, %eax
	addl	$1, %eax
	movl	%eax, _ZL12keyBufferPos
	.loc 1 24 0
	movl	_ZL12keyBufferPos, %eax
	cmpl	$1023, %eax
	jle	.L1
	.loc 1 26 0
	movl	$1023, _ZL12keyBufferPos
	jmp	.L1
.L4:
	.loc 1 19 0
	nop
.L1:
	.loc 1 29 0
	leave
	.cfi_restore 5
	.cfi_def_cfa 4, 4
	ret
	.cfi_endproc
.LFE0:
	.size	_ZL16keyboardCallback11registers_t, .-_ZL16keyboardCallback11registers_t
	.globl	_Z12initKeyboardv
	.type	_Z12initKeyboardv, @function
_Z12initKeyboardv:
.LFB1:
	.loc 1 32 0
	.cfi_startproc
	pushl	%ebp
	.cfi_def_cfa_offset 8
	.cfi_offset 5, -8
	movl	%esp, %ebp
	.cfi_def_cfa_register 5
	subl	$8, %esp
	.loc 1 33 0
	movl	$0, _ZL12keyBufferPos
	.loc 1 34 0
	subl	$8, %esp
	pushl	$_ZL16keyboardCallback11registers_t
	pushl	$33
	call	_Z24registerInterruptHandlerhPFv11registers_tE
	addl	$16, %esp
	.loc 1 35 0
	nop
	leave
	.cfi_restore 5
	.cfi_def_cfa 4, 4
	ret
	.cfi_endproc
.LFE1:
	.size	_Z12initKeyboardv, .-_Z12initKeyboardv
	.globl	_Z17getKeyboardBufferPct
	.type	_Z17getKeyboardBufferPct, @function
_Z17getKeyboardBufferPct:
.LFB2:
	.loc 1 38 0
	.cfi_startproc
	pushl	%ebp
	.cfi_def_cfa_offset 8
	.cfi_offset 5, -8
	movl	%esp, %ebp
	.cfi_def_cfa_register 5
	subl	$40, %esp
	movl	12(%ebp), %eax
	movw	%ax, -28(%ebp)
	.loc 1 39 0
	movl	_ZL12keyBufferPos, %eax
	movw	%ax, -10(%ebp)
	.loc 1 41 0
	movzwl	-28(%ebp), %eax
	cmpw	-10(%ebp), %ax
	jnb	.L7
	.loc 1 41 0 is_stmt 0 discriminator 1
	movzwl	-28(%ebp), %eax
	jmp	.L8
.L7:
	.loc 1 41 0 discriminator 2
	movzwl	-10(%ebp), %eax
.L8:
	.loc 1 41 0 discriminator 4
	movw	%ax, -12(%ebp)
	.loc 1 43 0 is_stmt 1 discriminator 4
	cmpl	$0, 8(%ebp)
	jne	.L9
	.loc 1 45 0
	movl	$0, %eax
	jmp	.L10
.L9:
	.loc 1 47 0
	movzwl	-12(%ebp), %eax
	subl	$4, %esp
	pushl	%eax
	pushl	$_ZL9keyBuffer
	pushl	8(%ebp)
	call	_Z6memcpyPcS_j
	addl	$16, %esp
	.loc 1 51 0
/APP
/  51 "drivers/keyboard.cpp" 1
	cli
/  0 "" 2
	.loc 1 52 0
/NO_APP
	movl	_ZL12keyBufferPos, %edx
	movzwl	-12(%ebp), %eax
	subl	%eax, %edx
	movl	%edx, %eax
	movl	%eax, %edx
	movzwl	-10(%ebp), %eax
	addl	$_ZL9keyBuffer, %eax
	subl	$4, %esp
	pushl	%edx
	pushl	%eax
	pushl	$_ZL9keyBuffer
	call	_Z6memcpyPcS_j
	addl	$16, %esp
	.loc 1 53 0
	movl	_ZL12keyBufferPos, %edx
	movzwl	-12(%ebp), %eax
	subl	%eax, %edx
	movl	%edx, %eax
	movl	%eax, _ZL12keyBufferPos
	.loc 1 54 0
/APP
/  54 "drivers/keyboard.cpp" 1
	sti
/  0 "" 2
	.loc 1 57 0
/NO_APP
	movzwl	-12(%ebp), %eax
.L10:
	.loc 1 58 0
	leave
	.cfi_restore 5
	.cfi_def_cfa 4, 4
	ret
	.cfi_endproc
.LFE2:
	.size	_Z17getKeyboardBufferPct, .-_Z17getKeyboardBufferPct
.Letext0:
	.file 2 "includes/hw/types.h"
	.file 3 "includes/hw/isr.h"